; Function Attrs: mustprogress nofree nounwind willreturn memory(read) uwtable
define i32 @proj_get_domain_count(ptr noundef readonly %0) local_unnamed_addr #15 {
  %.not = icmp eq ptr %0, null
  br i1 %.not, label %17, label %2

2:                                                ; preds = %1
  %3 = getelementptr inbounds i8, ptr %0, i64 640
  %4 = load ptr, ptr %3, align 8
  %.not10 = icmp eq ptr %4, null
  br i1 %.not10, label %17, label %5

5:                                                ; preds = %2
  %6 = tail call ptr @__dynamic_cast(ptr nonnull %4, ptr nonnull @_ZTIN5osgeo4proj4util10BaseObjectE, ptr nonnull @_ZTIN5osgeo4proj6common11ObjectUsageE, i64 0) #27
  %.not9 = icmp eq ptr %6, null
  br i1 %.not9, label %17, label %7

7:                                                ; preds = %5
  %8 = tail call noundef nonnull align 8 dereferenceable(24) ptr @_ZNK5osgeo4proj6common11ObjectUsage7domainsEv(ptr noundef nonnull align 8 dereferenceable(48) %6) #32
  %9 = getelementptr inbounds i8, ptr %8, i64 8
  %10 = load ptr, ptr %9, align 8
  %11 = load ptr, ptr %8, align 8
  %12 = ptrtoint ptr %10 to i64
  %13 = ptrtoint ptr %11 to i64
  %14 = sub i64 %12, %13
  %15 = lshr exact i64 %14, 4
  %16 = trunc i64 %15 to i32
  br label %17

17:                                               ; preds = %5, %1, %2, %7
  %.0 = phi i32 [ %16, %7 ], [ 0, %2 ], [ 0, %1 ], [ 0, %5 ]
  ret i32 %.0
}